target datalayout = "e-m:e-p270:32:32-p271:32:32-p272:64:64-i64:64-i128:128-f80:128-n8:16:32:64-S128"
target triple = "x86_64-unknown-linux-gnu"

%"class.absl::lts_20230802::Status" = type { i64 }
%"struct.grpc_core::PosixTcpOptions" = type { i32, i32, i32, i32, i32, i32, i8, i32, i32, i32, i8, i8, %"class.grpc_core::RefCountedPtr", ptr }
%"class.grpc_core::RefCountedPtr" = type { ptr }

; Function Attrs: mustprogress nounwind uwtable
define linkonce_odr noundef i64 @_ZN4absl12lts_202308026Status16CodeToInlinedRepENS0_10StatusCodeE(i32 noundef %code) #5 comdat align 2 {
entry:
  %code.addr = alloca i32, align 4
  store i32 %code, ptr %code.addr, align 4
  %0 = load i32, ptr %code.addr, align 4
  %conv = sext i32 %0 to i64
  %shl = shl i64 %conv, 2
  ret i64 %shl
}

; Function Attrs: mustprogress nounwind uwtable
define linkonce_odr void @_ZN4absl12lts_202308026StatusC2Ev(ptr noundef nonnull align 8 dereferenceable(8) %this) unnamed_addr #5 comdat align 2 {
entry:
  %this.addr = alloca ptr, align 8
  store ptr %this, ptr %this.addr, align 8
  %this1 = load ptr, ptr %this.addr, align 8
  %rep_ = getelementptr inbounds %"class.absl::lts_20230802::Status", ptr %this1, i32 0, i32 0
  %call = call noundef i64 @_ZN4absl12lts_202308026Status16CodeToInlinedRepENS0_10StatusCodeE(i32 noundef 0)
  store i64 %call, ptr %rep_, align 8
  ret void
}

; Function Attrs: mustprogress uwtable
define linkonce_odr void @_ZN4absl12lts_202308028OkStatusEv(ptr noalias sret(%"class.absl::lts_20230802::Status") align 8 %agg.result) #4 comdat {
entry:
  %result.ptr = alloca ptr, align 8
  store ptr %agg.result, ptr %result.ptr, align 8
  call void @_ZN4absl12lts_202308026StatusC2Ev(ptr noundef nonnull align 8 dereferenceable(8) %agg.result)
  ret void
}

; Function Attrs: mustprogress uwtable
define void @_Z33grpc_apply_socket_mutator_in_argsi13grpc_fd_usageRKN9grpc_core15PosixTcpOptionsE(ptr noalias sret(%"class.absl::lts_20230802::Status") align 8 %agg.result, i32 noundef %fd, i32 noundef %usage, ptr noundef nonnull align 8 dereferenceable(64) %options) #4 {
entry:
  %result.ptr = alloca ptr, align 8
  %fd.addr = alloca i32, align 4
  %usage.addr = alloca i32, align 4
  %options.addr = alloca ptr, align 8
  store ptr %agg.result, ptr %result.ptr, align 8
  store i32 %fd, ptr %fd.addr, align 4
  store i32 %usage, ptr %usage.addr, align 4
  store ptr %options, ptr %options.addr, align 8
  %0 = load ptr, ptr %options.addr, align 8
  %socket_mutator = getelementptr inbounds %"struct.grpc_core::PosixTcpOptions", ptr %0, i32 0, i32 13
  %1 = load ptr, ptr %socket_mutator, align 8
  %cmp = icmp eq ptr %1, null
  br i1 %cmp, label %if.then, label %if.end

if.then:                                          ; preds = %entry
  call void @_ZN4absl12lts_202308028OkStatusEv(ptr sret(%"class.absl::lts_20230802::Status") align 8 %agg.result)
  br label %return

if.end:                                           ; preds = %entry
  %2 = load i32, ptr %fd.addr, align 4
  %3 = load i32, ptr %usage.addr, align 4
  %4 = load ptr, ptr %options.addr, align 8
  %socket_mutator1 = getelementptr inbounds %"struct.grpc_core::PosixTcpOptions", ptr %4, i32 0, i32 13
  %5 = load ptr, ptr %socket_mutator1, align 8
  call void @_Z28grpc_set_socket_with_mutatori13grpc_fd_usageP19grpc_socket_mutator(ptr sret(%"class.absl::lts_20230802::Status") align 8 %agg.result, i32 noundef %2, i32 noundef %3, ptr noundef %5)
  br label %return

return:                                           ; preds = %if.end, %if.then
  ret void
}