; Function Attrs: mustprogress uwtable
define void @_Z33grpc_apply_socket_mutator_in_argsi13grpc_fd_usageRKN9grpc_core15PosixTcpOptionsE(ptr noalias sret(%"class.absl::lts_20230802::Status") align 8 %agg.result, i32 noundef %fd, i32 noundef %usage, ptr nocapture noundef nonnull readonly align 8 dereferenceable(64) %options) local_unnamed_addr #3 {
entry:
  %socket_mutator = getelementptr inbounds i8, ptr %options, i64 56
  %0 = load ptr, ptr %socket_mutator, align 8
  %cmp = icmp eq ptr %0, null
  br i1 %cmp, label %if.then, label %if.end

if.then:                                          ; preds = %entry
  store i64 0, ptr %agg.result, align 8, !alias.scope !72
  br label %return

if.end:                                           ; preds = %entry
  tail call void @_Z28grpc_set_socket_with_mutatori13grpc_fd_usageP19grpc_socket_mutator(ptr sret(%"class.absl::lts_20230802::Status") align 8 %agg.result, i32 noundef %fd, i32 noundef %usage, ptr noundef nonnull %0)
  br label %return

return:                                           ; preds = %if.end, %if.then
  ret void
}